
OA_Beacon.elf:     file format elf32-avr

Sections:
Idx Name          Size      VMA       LMA       File off  Algn
  0 .text         000001ce  00000000  00000000  00000094  2**1
                  CONTENTS, ALLOC, LOAD, READONLY, CODE
  1 .data         00000000  00800060  000001ce  00000262  2**0
                  CONTENTS, ALLOC, LOAD, DATA
  2 .bss          00000001  00800060  00800060  00000262  2**0
                  ALLOC
  3 .stab         00000918  00000000  00000000  00000264  2**2
                  CONTENTS, READONLY, DEBUGGING
  4 .stabstr      00000ece  00000000  00000000  00000b7c  2**0
                  CONTENTS, READONLY, DEBUGGING
  5 .comment      00000026  00000000  00000000  00001a4a  2**0
                  CONTENTS, READONLY
  6 .note.gnu.avr.deviceinfo 0000003c  00000000  00000000  00001a70  2**2
                  CONTENTS, READONLY, OCTETS
  7 .debug_aranges 00000040  00000000  00000000  00001ab0  2**3
                  CONTENTS, READONLY, DEBUGGING, OCTETS
  8 .debug_info   0000046c  00000000  00000000  00001af0  2**0
                  CONTENTS, READONLY, DEBUGGING, OCTETS
  9 .debug_abbrev 00000410  00000000  00000000  00001f5c  2**0
                  CONTENTS, READONLY, DEBUGGING, OCTETS
 10 .debug_line   000000fd  00000000  00000000  0000236c  2**0
                  CONTENTS, READONLY, DEBUGGING, OCTETS
 11 .debug_str    000001ec  00000000  00000000  00002469  2**0
                  CONTENTS, READONLY, DEBUGGING, OCTETS

Disassembly of section .text:

00000000 <__vectors>:
   0:	0e c0       	rjmp	.+28     	; 0x1e <__ctors_end>
   2:	1d c0       	rjmp	.+58     	; 0x3e <__bad_interrupt>
   4:	35 c0       	rjmp	.+106    	; 0x70 <__vector_2>
   6:	1b c0       	rjmp	.+54     	; 0x3e <__bad_interrupt>
   8:	1a c0       	rjmp	.+52     	; 0x3e <__bad_interrupt>
   a:	1a c0       	rjmp	.+52     	; 0x40 <__vector_5>
   c:	18 c0       	rjmp	.+48     	; 0x3e <__bad_interrupt>
   e:	24 c0       	rjmp	.+72     	; 0x58 <__vector_7>
  10:	16 c0       	rjmp	.+44     	; 0x3e <__bad_interrupt>
  12:	15 c0       	rjmp	.+42     	; 0x3e <__bad_interrupt>
  14:	14 c0       	rjmp	.+40     	; 0x3e <__bad_interrupt>
  16:	13 c0       	rjmp	.+38     	; 0x3e <__bad_interrupt>
  18:	12 c0       	rjmp	.+36     	; 0x3e <__bad_interrupt>
  1a:	11 c0       	rjmp	.+34     	; 0x3e <__bad_interrupt>
  1c:	10 c0       	rjmp	.+32     	; 0x3e <__bad_interrupt>

0000001e <__ctors_end>:
  1e:	11 24       	eor	r1, r1
  20:	1f be       	out	0x3f, r1	; 63
  22:	cf e5       	ldi	r28, 0x5F	; 95
  24:	d2 e0       	ldi	r29, 0x02	; 2
  26:	de bf       	out	0x3e, r29	; 62
  28:	cd bf       	out	0x3d, r28	; 61

0000002a <__do_clear_bss>:
  2a:	20 e0       	ldi	r18, 0x00	; 0

0000002c <.Loc.1>:
  2c:	a0 e6       	ldi	r26, 0x60	; 96

0000002e <.Loc.2>:
  2e:	b0 e0       	ldi	r27, 0x00	; 0

00000030 <.Loc.3>:
  30:	01 c0       	rjmp	.+2      	; 0x34 <.Loc.5>

00000032 <.Loc.4>:
  32:	1d 92       	st	X+, r1

00000034 <.Loc.5>:
  34:	a1 36       	cpi	r26, 0x61	; 97

00000036 <.Loc.6>:
  36:	b2 07       	cpc	r27, r18

00000038 <.Loc.7>:
  38:	e1 f7       	brne	.-8      	; 0x32 <.Loc.4>

0000003a <L0^A>:
  3a:	2a d0       	rcall	.+84     	; 0x90 <main>
  3c:	c6 c0       	rjmp	.+396    	; 0x1ca <_exit>

0000003e <__bad_interrupt>:
  3e:	e0 cf       	rjmp	.-64     	; 0x0 <__vectors>

00000040 <__vector_5>:
  40:	8f 93       	push	r24
  42:	8f b7       	in	r24, 0x3f	; 63
  44:	8f 93       	push	r24

00000046 <.LM1>:
  46:	80 91 60 00 	lds	r24, 0x0060	; 0x800060 <intflags>
  4a:	81 60       	ori	r24, 0x01	; 1
  4c:	80 93 60 00 	sts	0x0060, r24	; 0x800060 <intflags>

00000050 <.LM2>:
  50:	8f 91       	pop	r24
  52:	8f bf       	out	0x3f, r24	; 63
  54:	8f 91       	pop	r24
  56:	18 95       	reti

00000058 <__vector_7>:
  58:	8f 93       	push	r24
  5a:	8f b7       	in	r24, 0x3f	; 63
  5c:	8f 93       	push	r24

0000005e <.LM4>:
  5e:	80 91 60 00 	lds	r24, 0x0060	; 0x800060 <intflags>
  62:	84 60       	ori	r24, 0x04	; 4
  64:	80 93 60 00 	sts	0x0060, r24	; 0x800060 <intflags>

00000068 <.LM5>:
  68:	8f 91       	pop	r24
  6a:	8f bf       	out	0x3f, r24	; 63
  6c:	8f 91       	pop	r24
  6e:	18 95       	reti

00000070 <__vector_2>:
  70:	8f 93       	push	r24
  72:	8f b7       	in	r24, 0x3f	; 63
  74:	8f 93       	push	r24
  76:	9f 93       	push	r25

00000078 <.LM7>:
  78:	80 91 60 00 	lds	r24, 0x0060	; 0x800060 <intflags>
  7c:	9f ef       	ldi	r25, 0xFF	; 255
  7e:	90 fb       	bst	r25, 0
  80:	83 f9       	bld	r24, 3
  82:	80 93 60 00 	sts	0x0060, r24	; 0x800060 <intflags>

00000086 <.LM8>:
  86:	9f 91       	pop	r25
  88:	8f 91       	pop	r24
  8a:	8f bf       	out	0x3f, r24	; 63
  8c:	8f 91       	pop	r24
  8e:	18 95       	reti

00000090 <main>:
  90:	80 e8       	ldi	r24, 0x80	; 128
  92:	86 bd       	out	0x26, r24	; 38

00000094 <.LM11>:
  94:	86 e0       	ldi	r24, 0x06	; 6
  96:	86 bd       	out	0x26, r24	; 38

00000098 <.LM12>:
  98:	8a b5       	in	r24, 0x2a	; 42
  9a:	83 60       	ori	r24, 0x03	; 3
  9c:	8a bd       	out	0x2a, r24	; 42

0000009e <.LM13>:
  9e:	8a b5       	in	r24, 0x2a	; 42
  a0:	80 68       	ori	r24, 0x80	; 128
  a2:	8a bd       	out	0x2a, r24	; 42

000000a4 <.LM14>:
  a4:	8b e0       	ldi	r24, 0x0B	; 11
  a6:	89 bd       	out	0x29, r24	; 41

000000a8 <.LM15>:
  a8:	b8 9a       	sbi	0x17, 0	; 23

000000aa <.LM16>:
  aa:	89 b7       	in	r24, 0x39	; 57
  ac:	82 60       	ori	r24, 0x02	; 2
  ae:	89 bf       	out	0x39, r24	; 57

000000b0 <.LM17>:
  b0:	83 b7       	in	r24, 0x33	; 51
  b2:	85 60       	ori	r24, 0x05	; 5
  b4:	83 bf       	out	0x33, r24	; 51

000000b6 <.LM18>:
  b6:	37 98       	cbi	0x06, 7	; 6

000000b8 <.LM19>:
  b8:	1e 9a       	sbi	0x03, 6	; 3

000000ba <.LM20>:
  ba:	87 b1       	in	r24, 0x07	; 7
  bc:	83 60       	ori	r24, 0x03	; 3
  be:	87 b9       	out	0x07, r24	; 7

000000c0 <.LM21>:
  c0:	46 9a       	sbi	0x08, 6	; 8

000000c2 <.LM22>:
  c2:	3f 9a       	sbi	0x07, 7	; 7

000000c4 <.LM23>:
  c4:	88 b1       	in	r24, 0x08	; 8
  c6:	8c 7f       	andi	r24, 0xFC	; 252
  c8:	88 b9       	out	0x08, r24	; 8

000000ca <.LM24>:
  ca:	a3 9a       	sbi	0x14, 3	; 20

000000cc <.LM25>:
  cc:	47 98       	cbi	0x08, 7	; 8

000000ce <.LM26>:
  ce:	43 9a       	sbi	0x08, 3	; 8

000000d0 <.LM27>:
  d0:	80 e1       	ldi	r24, 0x10	; 16
  d2:	88 bb       	out	0x18, r24	; 24

000000d4 <.LM28>:
  d4:	ac 9a       	sbi	0x15, 4	; 21

000000d6 <.LM29>:
  d6:	8b b7       	in	r24, 0x3b	; 59
  d8:	80 62       	ori	r24, 0x20	; 32
  da:	8b bf       	out	0x3b, r24	; 59

000000dc <.LM30>:
  dc:	85 b7       	in	r24, 0x35	; 53
  de:	87 7e       	andi	r24, 0xE7	; 231
  e0:	85 bf       	out	0x35, r24	; 53

000000e2 <.LM31>:
  e2:	78 94       	sei

000000e4 <.LM32>:
  e4:	80 91 60 00 	lds	r24, 0x0060	; 0x800060 <intflags>
  e8:	84 60       	ori	r24, 0x04	; 4
  ea:	80 93 60 00 	sts	0x0060, r24	; 0x800060 <intflags>

000000ee <.LM33>:
  ee:	95 e0       	ldi	r25, 0x05	; 5

000000f0 <.LM34>:
  f0:	83 e0       	ldi	r24, 0x03	; 3

000000f2 <.LM35>:
  f2:	48 ef       	ldi	r20, 0xF8	; 248

000000f4 <.LM36>:
  f4:	35 e0       	ldi	r19, 0x05	; 5

000000f6 <.L13>:
  f6:	82 30       	cpi	r24, 0x02	; 2
  f8:	09 f4       	brne	.+2      	; 0xfc <.Lname43>

000000fa <L0^A>:
  fa:	3d c0       	rjmp	.+122    	; 0x176 <.L5>
  fc:	83 30       	cpi	r24, 0x03	; 3
  fe:	09 f4       	brne	.+2      	; 0x102 <.Lname44>

00000100 <L0^A>:
 100:	50 c0       	rjmp	.+160    	; 0x1a2 <.L6>
 102:	81 30       	cpi	r24, 0x01	; 1
 104:	51 f1       	breq	.+84     	; 0x15a <.L7>

00000106 <.LM38>:
 106:	b4 99       	sbic	0x16, 4	; 22
 108:	0d c0       	rjmp	.+26     	; 0x124 <.L8>

0000010a <.LM39>:
 10a:	85 b7       	in	r24, 0x35	; 53
 10c:	87 7e       	andi	r24, 0xE7	; 231
 10e:	80 61       	ori	r24, 0x10	; 16
 110:	85 bf       	out	0x35, r24	; 53

00000112 <.LM40>:
 112:	83 e0       	ldi	r24, 0x03	; 3

00000114 <.L9>:
 114:	25 b7       	in	r18, 0x35	; 53
 116:	20 62       	ori	r18, 0x20	; 32
 118:	25 bf       	out	0x35, r18	; 53
 11a:	88 95       	sleep
 11c:	25 b7       	in	r18, 0x35	; 53
 11e:	2f 7d       	andi	r18, 0xDF	; 223
 120:	25 bf       	out	0x35, r18	; 53

00000122 <.LM42>:
 122:	e9 cf       	rjmp	.-46     	; 0xf6 <.L13>

00000124 <.L8>:
 124:	80 91 60 00 	lds	r24, 0x0060	; 0x800060 <intflags>

00000128 <.LM44>:
 128:	82 ff       	sbrs	r24, 2
 12a:	2b c0       	rjmp	.+86     	; 0x182 <.L14>

0000012c <.LM45>:
 12c:	80 91 60 00 	lds	r24, 0x0060	; 0x800060 <intflags>
 130:	8b 7f       	andi	r24, 0xFB	; 251
 132:	80 93 60 00 	sts	0x0060, r24	; 0x800060 <intflags>

00000136 <.LM46>:
 136:	43 98       	cbi	0x08, 3	; 8

00000138 <.LM47>:
 138:	80 b5       	in	r24, 0x20	; 32
 13a:	8b 7f       	andi	r24, 0xFB	; 251
 13c:	80 bd       	out	0x20, r24	; 32

0000013e <.LM48>:
 13e:	89 b7       	in	r24, 0x39	; 57
 140:	82 60       	ori	r24, 0x02	; 2
 142:	89 bf       	out	0x39, r24	; 57

00000144 <.LM49>:
 144:	45 9b       	sbis	0x08, 5	; 8
 146:	06 c0       	rjmp	.+12     	; 0x154 <.L10>

00000148 <.LM50>:
 148:	8a b5       	in	r24, 0x2a	; 42
 14a:	8f 77       	andi	r24, 0x7F	; 127
 14c:	8a bd       	out	0x2a, r24	; 42

0000014e <.LM51>:
 14e:	b8 9a       	sbi	0x17, 0	; 23

00000150 <.LM52>:
 150:	c0 98       	cbi	0x18, 0	; 24

00000152 <.LM53>:
 152:	33 bf       	out	0x33, r19	; 51

00000154 <.L10>:
 154:	33 bf       	out	0x33, r19	; 51

00000156 <.LM55>:
 156:	81 e0       	ldi	r24, 0x01	; 1
 158:	dd cf       	rjmp	.-70     	; 0x114 <.L9>

0000015a <.L7>:
 15a:	20 91 60 00 	lds	r18, 0x0060	; 0x800060 <intflags>

0000015e <.LM57>:
 15e:	20 ff       	sbrs	r18, 0
 160:	d9 cf       	rjmp	.-78     	; 0x114 <.L9>

00000162 <.LM58>:
 162:	20 91 60 00 	lds	r18, 0x0060	; 0x800060 <intflags>
 166:	2e 7f       	andi	r18, 0xFE	; 254
 168:	20 93 60 00 	sts	0x0060, r18	; 0x800060 <intflags>

0000016c <.LM59>:
 16c:	91 50       	subi	r25, 0x01	; 1
 16e:	91 f6       	brne	.-92     	; 0x114 <.L9>

00000170 <.LM60>:
 170:	95 e0       	ldi	r25, 0x05	; 5

00000172 <.LM61>:
 172:	82 e0       	ldi	r24, 0x02	; 2
 174:	cf cf       	rjmp	.-98     	; 0x114 <.L9>

00000176 <.L5>:
 176:	45 9b       	sbis	0x08, 5	; 8
 178:	06 c0       	rjmp	.+12     	; 0x186 <.L11>

0000017a <.LM63>:
 17a:	8a b5       	in	r24, 0x2a	; 42
 17c:	80 68       	ori	r24, 0x80	; 128
 17e:	8a bd       	out	0x2a, r24	; 42

00000180 <.L12>:
 180:	43 9a       	sbi	0x08, 3	; 8

00000182 <.L14>:
 182:	80 e0       	ldi	r24, 0x00	; 0
 184:	c7 cf       	rjmp	.-114    	; 0x114 <.L9>

00000186 <.L11>:
 186:	89 b7       	in	r24, 0x39	; 57
 188:	8d 7f       	andi	r24, 0xFD	; 253
 18a:	89 bf       	out	0x39, r24	; 57

0000018c <.LM66>:
 18c:	43 bf       	out	0x33, r20	; 51

0000018e <.LM67>:
 18e:	8a b5       	in	r24, 0x2a	; 42
 190:	8f 77       	andi	r24, 0x7F	; 127
 192:	8a bd       	out	0x2a, r24	; 42

00000194 <.LM68>:
 194:	12 be       	out	0x32, r1	; 50

00000196 <.LM69>:
 196:	80 b5       	in	r24, 0x20	; 32
 198:	84 60       	ori	r24, 0x04	; 4
 19a:	80 bd       	out	0x20, r24	; 32

0000019c <.LM70>:
 19c:	b8 9a       	sbi	0x17, 0	; 23

0000019e <.LM71>:
 19e:	c0 98       	cbi	0x18, 0	; 24
 1a0:	ef cf       	rjmp	.-34     	; 0x180 <.L12>

000001a2 <.L6>:
 1a2:	20 91 60 00 	lds	r18, 0x0060	; 0x800060 <intflags>

000001a6 <.LM73>:
 1a6:	23 ff       	sbrs	r18, 3
 1a8:	b5 cf       	rjmp	.-150    	; 0x114 <.L9>

000001aa <.LM74>:
 1aa:	20 91 60 00 	lds	r18, 0x0060	; 0x800060 <intflags>
 1ae:	27 7f       	andi	r18, 0xF7	; 247
 1b0:	20 93 60 00 	sts	0x0060, r18	; 0x800060 <intflags>

000001b4 <.LM75>:
 1b4:	b4 9b       	sbis	0x16, 4	; 22
 1b6:	ae cf       	rjmp	.-164    	; 0x114 <.L9>

000001b8 <.LM76>:
 1b8:	80 91 60 00 	lds	r24, 0x0060	; 0x800060 <intflags>
 1bc:	84 60       	ori	r24, 0x04	; 4
 1be:	80 93 60 00 	sts	0x0060, r24	; 0x800060 <intflags>

000001c2 <.LM77>:
 1c2:	85 b7       	in	r24, 0x35	; 53
 1c4:	87 7e       	andi	r24, 0xE7	; 231
 1c6:	85 bf       	out	0x35, r24	; 53
 1c8:	dc cf       	rjmp	.-72     	; 0x182 <.L14>

000001ca <_exit>:
 1ca:	f8 94       	cli

000001cc <__stop_program>:
 1cc:	ff cf       	rjmp	.-2      	; 0x1cc <__stop_program>
